(lp0
(dp1
Vdomain
p2
V.google.com
p3
sVname
p4
V1P_JAR
p5
sVvalue
p6
V2020-06-20-01
p7
sVexpiry
p8
I1595208271
sVsameSite
p9
VNone
p10
sVpath
p11
V/
p12
sVhttpOnly
p13
I00
sVsecure
p14
I01
sa(dp15
Vdomain
p16
Vwww.google.com
p17
sVsecure
p18
I00
sVvalue
p19
Va+cm9sZToxIHByb2R1Y2VyOjEyIHByb3ZlbmFuY2U6NiB0aW1lc3RhbXA6MTU5MjYxNjI3MzQ5NzAwMCBsYXRsbmd7bGF0aXR1ZGVfZTc6Mzc3ODgwNTc2IGxvbmdpdHVkZV9lNzotMTIyMjc3MDY4OH0gcmFkaXVzOjIyMDc4MjA=
p20
sVexpiry
p21
I1592702673
sVpath
p22
g12
sVhttpOnly
p23
I00
sVname
p24
VUULE
p25
sa(dp26
Vdomain
p27
V.google.com
p28
sVname
p29
VNID
p30
sVvalue
p31
V204=tUaqBjfKMYx16cfsBCiyS0pEo33Qvq2y4TPoA5awv1c_g2GYJUSpaxGBBhdeDTg204fj73YWRpZkMA6rtPOkx_SxVDa7Q5doC2oQ1HdUbnoWXKhyF8c9zeqXdaMWv2FJD59kBt3WFjCISbXMU0pP6BGFyruwAE5JNKZSPrRxV1A
p32
sVexpiry
p33
I1608427469
sVsameSite
p34
VNone
p35
sVpath
p36
g12
sVhttpOnly
p37
I01
sVsecure
p38
I01
sa.