(lp0
(dp1
Vdomain
p2
V.google.com
p3
sVsecure
p4
I01
sVvalue
p5
V2020-6-22-6
p6
sVexpiry
p7
I1595400278
sVpath
p8
V/
p9
sVhttpOnly
p10
I00
sVname
p11
V1P_JAR
p12
sa(dp13
Vdomain
p14
Vclassroom.google.com
p15
sVsecure
p16
I01
sVvalue
p17
V5508405_84_88_104280_84_446940
p18
sVexpiry
p19
I1595400278
sVpath
p20
g9
sVhttpOnly
p21
I00
sVname
p22
VOTZ
p23
sa(dp24
Vdomain
p25
V.google.com
p26
sVsecure
p27
I00
sVvalue
p28
VAJi4QfFuASOPtUiYn9paMpZBTGiH8yK4WRpWpQbEIA5IMK4dMyG2s70v_j6k7LBsyd_P_FXxcA
p29
sVexpiry
p30
I1624344280
sVpath
p31
g9
sVhttpOnly
p32
I00
sVname
p33
VSIDCC
p34
sa(dp35
Vdomain
p36
V.google.com
p37
sVname
p38
V__Secure-3PAPISID
p39
sVvalue
p40
V4pjkSlpyGoZchNg0/A4cqtT2_yO-i1orZj
p41
sVexpiry
p42
I1655880277
sVsameSite
p43
VNone
p44
sVpath
p45
g9
sVhttpOnly
p46
I00
sVsecure
p47
I01
sa(dp48
Vdomain
p49
V.google.com
p50
sVname
p51
V__Secure-APISID
p52
sVvalue
p53
VbFxstP26U1totcw6/AwhNxitmePL_aMdXp
p54
sVexpiry
p55
I1596265199
sVsameSite
p56
VNone
p57
sVpath
p58
g9
sVhttpOnly
p59
I00
sVsecure
p60
I01
sa(dp61
Vdomain
p62
V.google.com
p63
sVname
p64
V__Secure-SSID
p65
sVvalue
p66
VAtZdqsRzEQPuHcPmx
p67
sVexpiry
p68
I1596265199
sVsameSite
p69
VNone
p70
sVpath
p71
g9
sVhttpOnly
p72
I01
sVsecure
p73
I01
sa(dp74
Vdomain
p75
V.google.com
p76
sVsecure
p77
I01
sVvalue
p78
VAtZdqsRzEQPuHcPmx
p79
sVexpiry
p80
I1655880277
sVpath
p81
g9
sVhttpOnly
p82
I01
sVname
p83
VSSID
p84
sa(dp85
Vdomain
p86
V.google.com
p87
sVname
p88
VNID
p89
sVvalue
p90
V204=wvGTF1exPAmRHthltiVUIKjiBJTH0RSmpZca6N8rvFILWXAMbhBTsP2Ej0xdSaOzCk0VrjmCItXwdx_Hb6iBNAHijAt4hZHmsxwpms78qqwtD3gYjojkZZjlFmU57YNkTGAl5LTQR1H3m7OiAFxLo2WhuTjSBq2jINZFavg_HHA
p91
sVexpiry
p92
I1608619477
sVsameSite
p93
VNone
p94
sVpath
p95
g9
sVhttpOnly
p96
I01
sVsecure
p97
I01
sa(dp98
Vdomain
p99
V.google.com
p100
sVsecure
p101
I00
sVvalue
p102
VAc4cab3GIq1H3j_Xq
p103
sVexpiry
p104
I1655880277
sVpath
p105
g9
sVhttpOnly
p106
I01
sVname
p107
VHSID
p108
sa(dp109
Vdomain
p110
V.google.com
p111
sVsecure
p112
I00
sVvalue
p113
VbFxstP26U1totcw6/AwhNxitmePL_aMdXp
p114
sVexpiry
p115
I1655880277
sVpath
p116
g9
sVhttpOnly
p117
I00
sVname
p118
VAPISID
p119
sa(dp120
Vdomain
p121
V.google.com
p122
sVname
p123
V__Secure-HSID
p124
sVvalue
p125
VAc4cab3GIq1H3j_Xq
p126
sVexpiry
p127
I1596265199
sVsameSite
p128
VNone
p129
sVpath
p130
g9
sVhttpOnly
p131
I01
sVsecure
p132
I01
sa(dp133
Vdomain
p134
V.google.com
p135
sVsecure
p136
I01
sVvalue
p137
V4pjkSlpyGoZchNg0/A4cqtT2_yO-i1orZj
p138
sVexpiry
p139
I1655880277
sVpath
p140
g9
sVhttpOnly
p141
I00
sVname
p142
VSAPISID
p143
sa(dp144
Vdomain
p145
V.google.com
p146
sVname
p147
V__Secure-3PSID
p148
sVvalue
p149
VyQe4FgBPyeLon4SipU6AP_F3s6fvZp9XXDSKflXhC2PYj3bV3YV4Lz0otcvilak_bw1T1A.
p150
sVexpiry
p151
I1655880277
sVsameSite
p152
VNone
p153
sVpath
p154
g9
sVhttpOnly
p155
I01
sVsecure
p156
I01
sa(dp157
Vdomain
p158
V.google.com
p159
sVsecure
p160
I00
sVvalue
p161
VyQe4FgBPyeLon4SipU6AP_F3s6fvZp9XXDSKflXhC2PYj3bVgr9MRKDY47Y66Tu4r83Lbg.
p162
sVexpiry
p163
I1655880277
sVpath
p164
g9
sVhttpOnly
p165
I00
sVname
p166
VSID
p167
sa.