ccopy_reg
_reconstructor
p0
(cgoogle.oauth2.credentials
Credentials
p1
c__builtin__
object
p2
Ntp3
Rp4
(dp5
S'_quota_project_id'
p6
NsS'_token_uri'
p7
Vhttps://oauth2.googleapis.com/token
p8
sS'_client_secret'
p9
VTll7CqsHAf050AmeNFFbxm4n
p10
sS'_id_token'
p11
NsS'token'
p12
Vya29.ImDAB9wF2U0LfvZ1I8Mjob0enRadSSlKicAQC1n3OPRUbNeL8a8IKwY-Vn6a_k9uw8w3ldg0FigA8-vksGkgUC4wKhE2zTLDGTPtL7hn8nEdGcInk2C4zM20QtCujbW28Z0
p13
sS'_refresh_token'
p14
V1//06R3DllaG5MF4CgYIARAAGAYSNwF-L9Irw4P1j9jwvNLV6iTHfbgFxxKdlaV5DGk7LSnyOjeMDRqQexjAcTCRA-d4EGAd_EeVi64
p15
sS'_scopes'
p16
(lp17
S'https://www.googleapis.com/auth/classroom.coursework.students https://www.googleapis.com/auth/classroom.courses'
p18
asS'_client_id'
p19
V604190966773-cuu4vfglal0b1dr1rg6mlh2bfjntch9u.apps.googleusercontent.com
p20
sS'expiry'
p21
cdatetime
datetime
p22
(S'\x07\xe4\x03\x05\x06%\x04\n\xbb\xe7'
p23
tp24
Rp25
sb.